target datalayout = "e-m:e-p270:32:32-p271:32:32-p272:64:64-i64:64-i128:128-f80:128-n8:16:32:64-S128"
target triple = "x86_64-pc-linux-gnu"

%struct.ggml_backend = type { ptr, %struct.ggml_backend_i, ptr, ptr }
%struct.ggml_backend_i = type { ptr, ptr, ptr, ptr, ptr, ptr, ptr, ptr, ptr, ptr, ptr, ptr, ptr }
%struct.ggml_backend_device = type { %struct.ggml_backend_device_i, ptr, ptr }
%struct.ggml_backend_device_i = type { ptr, ptr, ptr, ptr, ptr, ptr, ptr, ptr, ptr, ptr, ptr, ptr, ptr, ptr, ptr }

; Function Attrs: mustprogress uwtable
define zeroext i1 @ggml_backend_dev_offload_op(ptr noundef %0, ptr noundef %1) #0 {
  %3 = alloca i1, align 1
  %4 = alloca ptr, align 8
  %5 = alloca ptr, align 8
  store ptr %0, ptr %4, align 8, !tbaa !65
  store ptr %1, ptr %5, align 8, !tbaa !28
  %6 = load ptr, ptr %4, align 8, !tbaa !65
  %7 = getelementptr inbounds nuw %struct.ggml_backend_device, ptr %6, i32 0, i32 0
  %8 = getelementptr inbounds nuw %struct.ggml_backend_device_i, ptr %7, i32 0, i32 11
  %9 = load ptr, ptr %8, align 8, !tbaa !87
  %10 = icmp ne ptr %9, null
  br i1 %10, label %11, label %19

11:                                               ; preds = %2
  %12 = load ptr, ptr %4, align 8, !tbaa !65
  %13 = getelementptr inbounds nuw %struct.ggml_backend_device, ptr %12, i32 0, i32 0
  %14 = getelementptr inbounds nuw %struct.ggml_backend_device_i, ptr %13, i32 0, i32 11
  %15 = load ptr, ptr %14, align 8, !tbaa !87
  %16 = load ptr, ptr %4, align 8, !tbaa !65
  %17 = load ptr, ptr %5, align 8, !tbaa !28
  %18 = call noundef zeroext i1 %15(ptr noundef %16, ptr noundef %17)
  store i1 %18, ptr %3, align 1
  br label %20

19:                                               ; preds = %2
  store i1 false, ptr %3, align 1
  br label %20

20:                                               ; preds = %19, %11
  %21 = load i1, ptr %3, align 1
  ret i1 %21
}

; Function Attrs: mustprogress uwtable
define zeroext i1 @ggml_backend_offload_op(ptr noundef %0, ptr noundef %1) #0 {
  %3 = alloca ptr, align 8
  %4 = alloca ptr, align 8
  store ptr %0, ptr %3, align 8, !tbaa !56
  store ptr %1, ptr %4, align 8, !tbaa !28
  %5 = load ptr, ptr %3, align 8, !tbaa !56
  %6 = getelementptr inbounds nuw %struct.ggml_backend, ptr %5, i32 0, i32 2
  %7 = load ptr, ptr %6, align 8, !tbaa !64
  %8 = load ptr, ptr %4, align 8, !tbaa !28
  %9 = call zeroext i1 @ggml_backend_dev_offload_op(ptr noundef %7, ptr noundef %8)
  ret i1 %9
}