; Function Attrs: mustprogress uwtable
define noundef zeroext i1 @ggml_backend_offload_op(ptr noundef readonly captures(none) %0, ptr noundef %1) local_unnamed_addr #0 {
  %3 = getelementptr inbounds nuw i8, ptr %0, i64 112
  %4 = load ptr, ptr %3, align 8, !tbaa !55
  %5 = getelementptr inbounds nuw i8, ptr %4, i64 88
  %6 = load ptr, ptr %5, align 8, !tbaa !73
  %.not.i = icmp eq ptr %6, null
  br i1 %.not.i, label %ggml_backend_dev_offload_op.exit, label %7

7:                                                ; preds = %2
  %8 = tail call noundef zeroext i1 %6(ptr noundef nonnull %4, ptr noundef %1)
  br label %ggml_backend_dev_offload_op.exit

ggml_backend_dev_offload_op.exit:                 ; preds = %2, %7
  %.0.i = phi i1 [ %8, %7 ], [ false, %2 ]
  ret i1 %.0.i
}